target datalayout = "e-m:e-p270:32:32-p271:32:32-p272:64:64-i64:64-i128:128-f80:128-n8:16:32:64-S128"
target triple = "x86_64-unknown-linux-gnu"

%"class.folly::Indestructible" = type { %"struct.folly::Indestructible<folly::InlineExecutor>::Storage" }
%"struct.folly::Indestructible<folly::InlineExecutor>::Storage" = type { %"union.std::aligned_storage<8, 8>::type" }
%"union.std::aligned_storage<8, 8>::type" = type { [8 x i8] }
%"struct.std::atomic" = type { %"struct.std::__atomic_base" }
%"struct.std::__atomic_base" = type { ptr }
%"class.folly::Function" = type { %"union.folly::detail::function::Data", ptr, ptr }
%"union.folly::detail::function::Data" = type { ptr, [40 x i8] }

$_ZNK5folly8Executor16getNumPrioritiesEv = comdat any

$_ZN5folly14InlineExecutorD1Ev = comdat any

$_ZN5folly14InlineExecutorD0Ev = comdat any

$_ZN5folly14InlineExecutor3addENS_8FunctionIFvvEEE = comdat any

$_ZTVN5folly14InlineExecutorE = comdat any

$_ZTSN5folly18InlineLikeExecutorE = comdat any

$_ZTIN5folly18InlineLikeExecutorE = comdat any

$_ZTSN5folly14InlineExecutorE = comdat any

$_ZTIN5folly14InlineExecutorE = comdat any

@_ZZN5folly14InlineExecutor13instance_slowEvE8instance = internal global %"class.folly::Indestructible" zeroinitializer, align 8
@_ZGVZN5folly14InlineExecutor13instance_slowEvE8instance = internal global i64 0, align 8
@_ZN5folly14InlineExecutor5cacheE = local_unnamed_addr global %"struct.std::atomic" zeroinitializer, align 8
@_ZTVN5folly14InlineExecutorE = linkonce_odr unnamed_addr constant { [16 x ptr] } { [16 x ptr] [ptr null, ptr null, ptr null, ptr null, ptr null, ptr null, ptr null, ptr null, ptr @_ZTIN5folly14InlineExecutorE, ptr @_ZN5folly14InlineExecutorD1Ev, ptr @_ZN5folly14InlineExecutorD0Ev, ptr @_ZN5folly14InlineExecutor3addENS_8FunctionIFvvEEE, ptr @_ZN5folly8Executor15addWithPriorityENS_8FunctionIFvvEEEa, ptr @_ZNK5folly8Executor16getNumPrioritiesEv, ptr @_ZN5folly8Executor16keepAliveAcquireEv, ptr @_ZN5folly8Executor16keepAliveReleaseEv] }, comdat, align 8
@_ZTVN10__cxxabiv121__vmi_class_type_infoE = external global [0 x ptr]
@_ZTSN5folly18InlineLikeExecutorE = linkonce_odr constant [29 x i8] c"N5folly18InlineLikeExecutorE\00", comdat, align 1
@_ZTIN5folly8ExecutorE = external constant ptr
@_ZTIN5folly18InlineLikeExecutorE = linkonce_odr constant { ptr, ptr, i32, i32, ptr, i64 } { ptr getelementptr inbounds (ptr, ptr @_ZTVN10__cxxabiv121__vmi_class_type_infoE, i64 2), ptr @_ZTSN5folly18InlineLikeExecutorE, i32 0, i32 1, ptr @_ZTIN5folly8ExecutorE, i64 -18429 }, comdat, align 8
@_ZTVN10__cxxabiv120__si_class_type_infoE = external global [0 x ptr]
@_ZTSN5folly14InlineExecutorE = linkonce_odr constant [25 x i8] c"N5folly14InlineExecutorE\00", comdat, align 1
@_ZTIN5folly14InlineExecutorE = linkonce_odr constant { ptr, ptr, ptr } { ptr getelementptr inbounds (ptr, ptr @_ZTVN10__cxxabiv120__si_class_type_infoE, i64 2), ptr @_ZTSN5folly14InlineExecutorE, ptr @_ZTIN5folly18InlineLikeExecutorE }, comdat, align 8

; Function Attrs: cold mustprogress nofree nounwind optsize uwtable
define noundef nonnull align 8 dereferenceable(8) ptr @_ZN5folly14InlineExecutor13instance_slowEv() local_unnamed_addr #0 align 2 personality ptr @__gxx_personality_v0 {
entry:
  %0 = load atomic i8, ptr @_ZGVZN5folly14InlineExecutor13instance_slowEvE8instance acquire, align 8
  %guard.uninitialized = icmp eq i8 %0, 0
  br i1 %guard.uninitialized, label %init.check, label %init.end, !prof !7

init.check:                                       ; preds = %entry
  %1 = tail call i32 @__cxa_guard_acquire(ptr nonnull @_ZGVZN5folly14InlineExecutor13instance_slowEvE8instance) #8
  %tobool.not = icmp eq i32 %1, 0
  br i1 %tobool.not, label %init.end, label %init

init:                                             ; preds = %init.check
  store ptr getelementptr inbounds ({ [16 x ptr] }, ptr @_ZTVN5folly14InlineExecutorE, i64 0, i32 0, i64 9), ptr @_ZZN5folly14InlineExecutor13instance_slowEvE8instance, align 8, !tbaa !8
  tail call void @__cxa_guard_release(ptr nonnull @_ZGVZN5folly14InlineExecutor13instance_slowEvE8instance) #8
  br label %init.end

init.end:                                         ; preds = %init, %init.check, %entry
  store atomic i64 ptrtoint (ptr @_ZZN5folly14InlineExecutor13instance_slowEvE8instance to i64), ptr @_ZN5folly14InlineExecutor5cacheE release, align 8
  ret ptr @_ZZN5folly14InlineExecutor13instance_slowEvE8instance
}

; Function Attrs: nofree nounwind
declare i32 @__cxa_guard_acquire(ptr) local_unnamed_addr #1

; Function Attrs: nofree nounwind
declare void @__cxa_guard_release(ptr) local_unnamed_addr #1

declare void @_ZN5folly8Executor15addWithPriorityENS_8FunctionIFvvEEEa(ptr noundef nonnull align 8 dereferenceable(8), ptr noundef, i8 noundef signext) unnamed_addr #2

; Function Attrs: mustprogress nounwind uwtable
define linkonce_odr noundef zeroext i8 @_ZNK5folly8Executor16getNumPrioritiesEv(ptr noundef nonnull align 8 dereferenceable(8) %this) unnamed_addr #3 comdat align 2 {
entry:
  ret i8 1
}

; Function Attrs: nounwind
declare noundef zeroext i1 @_ZN5folly8Executor16keepAliveAcquireEv(ptr noundef nonnull align 8 dereferenceable(8)) unnamed_addr #4

; Function Attrs: nounwind
declare void @_ZN5folly8Executor16keepAliveReleaseEv(ptr noundef nonnull align 8 dereferenceable(8)) unnamed_addr #4

; Function Attrs: inlinehint mustprogress nounwind uwtable
define linkonce_odr void @_ZN5folly14InlineExecutorD1Ev(ptr noundef nonnull align 8 dereferenceable(8) %this) unnamed_addr #5 comdat align 2 {
entry:
  ret void
}

; Function Attrs: inlinehint mustprogress nounwind uwtable
define linkonce_odr void @_ZN5folly14InlineExecutorD0Ev(ptr noundef nonnull align 8 dereferenceable(8) %this) unnamed_addr #5 comdat align 2 {
entry:
  tail call void @_ZdlPv(ptr noundef nonnull %this) #9
  ret void
}

; Function Attrs: mustprogress uwtable
define linkonce_odr void @_ZN5folly14InlineExecutor3addENS_8FunctionIFvvEEE(ptr noundef nonnull align 8 dereferenceable(8) %this, ptr noundef %f) unnamed_addr #6 comdat align 2 {
entry:
  %call_.i = getelementptr inbounds %"class.folly::Function", ptr %f, i64 0, i32 1
  %0 = load ptr, ptr %call_.i, align 16, !tbaa !11
  tail call void %0(ptr noundef nonnull align 16 dereferenceable(48) %f)
  ret void
}

; Function Attrs: nobuiltin nounwind
declare void @_ZdlPv(ptr noundef) local_unnamed_addr #7

declare i32 @__gxx_personality_v0(...)


!llvm.module.flags = !{!0, !1, !2, !3, !4, !5, !6}

!0 = !{i32 7, !"Dwarf Version", i32 5}
!1 = !{i32 2, !"Debug Info Version", i32 3}
!2 = !{i32 1, !"wchar_size", i32 4}
!3 = !{i32 7, !"openmp", i32 51}
!4 = !{i32 8, !"PIC Level", i32 2}
!5 = !{i32 7, !"uwtable", i32 2}
!6 = !{i32 7, !"debug-info-assignment-tracking", i1 true}
!7 = !{!"branch_weights", i32 1, i32 1048575}
!8 = !{!9, !9, i64 0}
!9 = !{!"vtable pointer", !10, i64 0}
!10 = !{!"Simple C++ TBAA"}
!11 = !{!12, !14, i64 48}
!12 = !{!"_ZTSN5folly8FunctionIFvvEEE", !13, i64 0, !14, i64 48, !14, i64 56}
!13 = !{!"omnipotent char", !10, i64 0}
!14 = !{!"any pointer", !13, i64 0}
